target datalayout = "e-m:e-p270:32:32-p271:32:32-p272:64:64-i64:64-i128:128-f80:128-n8:16:32:64-S128"
target triple = "x86_64-pc-linux-gnu"

; Function Attrs: mustprogress nounwind uwtable
define hidden void @_ZN3Jfr14on_vm_shutdownEbb(i1 noundef zeroext %0, i1 noundef zeroext %1) #1 align 2 {
  %3 = alloca i8, align 1
  %4 = alloca i8, align 1
  %5 = zext i1 %0 to i8
  store i8 %5, ptr %3, align 1
  %6 = zext i1 %1 to i8
  store i8 %6, ptr %4, align 1
  %7 = load i8, ptr %4, align 1
  %8 = trunc i8 %7 to i1
  br i1 %8, label %14, label %9

9:                                                ; preds = %2
  %10 = call noundef zeroext i1 @_ZN11JfrRecorder12is_recordingEv()
  br i1 %10, label %11, label %14

11:                                               ; preds = %9
  %12 = load i8, ptr %3, align 1
  %13 = trunc i8 %12 to i1
  call void @_ZN16JfrEmergencyDump14on_vm_shutdownEb(i1 noundef zeroext %13)
  br label %14

14:                                               ; preds = %11, %9, %2
  ret void
}