; Function Attrs: mustprogress nounwind uwtable
define hidden void @_ZN3Jfr14on_vm_shutdownEbb(i1 noundef zeroext %0, i1 noundef zeroext %1) local_unnamed_addr #0 align 2 {
  br i1 %1, label %6, label %3

3:                                                ; preds = %2
  %4 = tail call noundef zeroext i1 @_ZN11JfrRecorder12is_recordingEv() #2
  br i1 %4, label %5, label %6

5:                                                ; preds = %3
  tail call void @_ZN16JfrEmergencyDump14on_vm_shutdownEb(i1 noundef zeroext %0) #2
  br label %6

6:                                                ; preds = %5, %3, %2
  ret void
}